target datalayout = "e-m:e-p270:32:32-p271:32:32-p272:64:64-i64:64-i128:128-f80:128-n8:16:32:64-S128"
target triple = "x86_64-pc-linux-gnu"

%"class.std::__1::unique_lock" = type <{ ptr, i8, [7 x i8] }>
%"class.std::__1::__thread_specific_ptr" = type { i32 }

; Function Attrs: inlinehint mustprogress nounwind uwtable
define linkonce_odr hidden noundef i32 @_ZNSt3__116__libcpp_tls_setB8ne210000EjPv(i32 noundef %0, ptr noundef %1) #1 comdat {
  %3 = alloca i32, align 4
  %4 = alloca ptr, align 8
  store i32 %0, ptr %3, align 4, !tbaa !13
  store ptr %1, ptr %4, align 8, !tbaa !10
  %5 = load i32, ptr %3, align 4, !tbaa !13
  %6 = load ptr, ptr %4, align 8, !tbaa !10
  %7 = call i32 @pthread_setspecific(i32 noundef %5, ptr noundef %6) #13
  ret i32 %7
}

; Function Attrs: inlinehint mustprogress nounwind uwtable
define linkonce_odr hidden noundef ptr @_ZNSt3__116__libcpp_tls_getB8ne210000Ej(i32 noundef %0) #1 comdat {
  %2 = alloca i32, align 4
  store i32 %0, ptr %2, align 4, !tbaa !13
  %3 = load i32, ptr %2, align 4, !tbaa !13
  %4 = call ptr @pthread_getspecific(i32 noundef %3) #13
  ret ptr %4
}

; Function Attrs: mustprogress nounwind uwtable
define linkonce_odr hidden noundef ptr @_ZNSt3__111unique_lockINS_5mutexEE7releaseB8ne210000Ev(ptr noundef nonnull align 8 dereferenceable(9) %0) #0 comdat align 2 {
  %2 = alloca ptr, align 8
  %3 = alloca ptr, align 8
  store ptr %0, ptr %2, align 8, !tbaa !11
  %4 = load ptr, ptr %2, align 8
  call void @llvm.lifetime.start.p0(i64 8, ptr %3) #13
  %5 = getelementptr inbounds nuw %"class.std::__1::unique_lock", ptr %4, i32 0, i32 0
  %6 = load ptr, ptr %5, align 8, !tbaa !21
  store ptr %6, ptr %3, align 8, !tbaa !22
  %7 = getelementptr inbounds nuw %"class.std::__1::unique_lock", ptr %4, i32 0, i32 0
  store ptr null, ptr %7, align 8, !tbaa !21
  %8 = getelementptr inbounds nuw %"class.std::__1::unique_lock", ptr %4, i32 0, i32 1
  store i8 0, ptr %8, align 8, !tbaa !15
  %9 = load ptr, ptr %3, align 8, !tbaa !22
  call void @llvm.lifetime.end.p0(i64 8, ptr %3) #13
  ret ptr %9
}

; Function Attrs: mustprogress uwtable
define linkonce_odr hidden noundef ptr @_ZNKSt3__121__thread_specific_ptrINS_15__thread_structEEptB8ne210000Ev(ptr noundef nonnull align 4 dereferenceable(4) %0) #6 comdat align 2 {
  %2 = alloca ptr, align 8
  store ptr %0, ptr %2, align 8, !tbaa !47
  %3 = load ptr, ptr %2, align 8
  %4 = call noundef ptr @_ZNKSt3__121__thread_specific_ptrINS_15__thread_structEE3getB8ne210000Ev(ptr noundef nonnull align 4 dereferenceable(4) %3)
  ret ptr %4
}

; Function Attrs: mustprogress uwtable
define linkonce_odr hidden void @_ZNSt3__121__thread_specific_ptrINS_15__thread_structEE11set_pointerEPS1_(ptr noundef nonnull align 4 dereferenceable(4) %0, ptr noundef %1) #6 comdat align 2 {
  %3 = alloca ptr, align 8
  %4 = alloca ptr, align 8
  store ptr %0, ptr %3, align 8, !tbaa !47
  store ptr %1, ptr %4, align 8, !tbaa !51
  %5 = load ptr, ptr %3, align 8
  %6 = getelementptr inbounds nuw %"class.std::__1::__thread_specific_ptr", ptr %5, i32 0, i32 0
  %7 = load i32, ptr %6, align 4, !tbaa !49
  %8 = load ptr, ptr %4, align 8, !tbaa !51
  %9 = call noundef i32 @_ZNSt3__116__libcpp_tls_setB8ne210000EjPv(i32 noundef %7, ptr noundef %8)
  ret void
}

; Function Attrs: mustprogress uwtable
define linkonce_odr hidden noundef ptr @_ZNKSt3__121__thread_specific_ptrINS_15__thread_structEE3getB8ne210000Ev(ptr noundef nonnull align 4 dereferenceable(4) %0) #6 comdat align 2 {
  %2 = alloca ptr, align 8
  store ptr %0, ptr %2, align 8, !tbaa !47
  %3 = load ptr, ptr %2, align 8
  %4 = getelementptr inbounds nuw %"class.std::__1::__thread_specific_ptr", ptr %3, i32 0, i32 0
  %5 = load i32, ptr %4, align 4, !tbaa !49
  %6 = call noundef ptr @_ZNSt3__116__libcpp_tls_getB8ne210000Ej(i32 noundef %5)
  ret ptr %6
}

; Function Attrs: mustprogress uwtable
define dso_local void @_ZNSt3__125notify_all_at_thread_exitERNS_18condition_variableENS_11unique_lockINS_5mutexEEE(ptr noundef nonnull align 8 dereferenceable(48) %0, ptr noundef %1) #6 personality ptr @__gxx_personality_v0 {
  %3 = alloca ptr, align 8
  %4 = alloca ptr, align 8
  %5 = alloca ptr, align 8
  %6 = alloca ptr, align 8
  %7 = alloca i32, align 4
  store ptr %0, ptr %3, align 8, !tbaa !5
  store ptr %1, ptr %4, align 8, !tbaa !11
  call void @llvm.lifetime.start.p0(i64 8, ptr %5) #13
  %8 = call noundef nonnull align 4 dereferenceable(4) ptr @_ZNSt3__119__thread_local_dataEv()
  store ptr %8, ptr %5, align 8, !tbaa !47
  %9 = load ptr, ptr %5, align 8, !tbaa !47
  %10 = call noundef ptr @_ZNKSt3__121__thread_specific_ptrINS_15__thread_structEE3getB8ne210000Ev(ptr noundef nonnull align 4 dereferenceable(4) %9)
  %11 = icmp eq ptr %10, null
  br i1 %11, label %12, label %20

12:                                               ; preds = %2
  %13 = load ptr, ptr %5, align 8, !tbaa !47
  %14 = call noalias noundef nonnull ptr @_Znwm(i64 noundef 8) #15
  invoke void @_ZNSt3__115__thread_structC1Ev(ptr noundef nonnull align 8 dereferenceable(8) %14)
          to label %15 unwind label %16

15:                                               ; preds = %12
  call void @_ZNSt3__121__thread_specific_ptrINS_15__thread_structEE11set_pointerEPS1_(ptr noundef nonnull align 4 dereferenceable(4) %13, ptr noundef %14)
  br label %20

16:                                               ; preds = %12
  %17 = landingpad { ptr, i32 }
          cleanup
  %18 = extractvalue { ptr, i32 } %17, 0
  store ptr %18, ptr %6, align 8
  %19 = extractvalue { ptr, i32 } %17, 1
  store i32 %19, ptr %7, align 4
  call void @_ZdlPvm(ptr noundef %14, i64 noundef 8) #16
  call void @llvm.lifetime.end.p0(i64 8, ptr %5) #13
  br label %25

20:                                               ; preds = %15, %2
  %21 = call noundef nonnull align 4 dereferenceable(4) ptr @_ZNSt3__119__thread_local_dataEv()
  %22 = call noundef ptr @_ZNKSt3__121__thread_specific_ptrINS_15__thread_structEEptB8ne210000Ev(ptr noundef nonnull align 4 dereferenceable(4) %21)
  %23 = load ptr, ptr %3, align 8, !tbaa !5
  %24 = call noundef ptr @_ZNSt3__111unique_lockINS_5mutexEE7releaseB8ne210000Ev(ptr noundef nonnull align 8 dereferenceable(9) %1) #13
  call void @_ZNSt3__115__thread_struct25notify_all_at_thread_exitEPNS_18condition_variableEPNS_5mutexE(ptr noundef nonnull align 8 dereferenceable(8) %22, ptr noundef %23, ptr noundef %24)
  call void @llvm.lifetime.end.p0(i64 8, ptr %5) #13
  ret void

25:                                               ; preds = %16
  %26 = load ptr, ptr %6, align 8
  %27 = load i32, ptr %7, align 4
  %28 = insertvalue { ptr, i32 } poison, ptr %26, 0
  %29 = insertvalue { ptr, i32 } %28, i32 %27, 1
  resume { ptr, i32 } %29
}