; Function Attrs: mustprogress uwtable
define dso_local void @_ZNSt3__125notify_all_at_thread_exitERNS_18condition_variableENS_11unique_lockINS_5mutexEEE(ptr noundef nonnull align 8 dereferenceable(48) %0, ptr noundef captures(none) %1) local_unnamed_addr #5 personality ptr @__gxx_personality_v0 {
  %3 = tail call noundef nonnull align 4 dereferenceable(4) ptr @_ZNSt3__119__thread_local_dataEv()
  %4 = load i32, ptr %3, align 4, !tbaa !19
  %5 = tail call noundef ptr @pthread_getspecific(i32 noundef %4) #11
  %6 = icmp eq ptr %5, null
  br i1 %6, label %7, label %14

7:                                                ; preds = %2
  %8 = tail call noalias noundef nonnull dereferenceable(8) ptr @_Znwm(i64 noundef 8) #14
  invoke void @_ZNSt3__115__thread_structC1Ev(ptr noundef nonnull align 8 dereferenceable(8) %8)
          to label %9 unwind label %12

9:                                                ; preds = %7
  %10 = load i32, ptr %3, align 4, !tbaa !19
  %11 = tail call noundef i32 @pthread_setspecific(i32 noundef %10, ptr noundef nonnull %8) #11
  br label %14

12:                                               ; preds = %7
  %13 = landingpad { ptr, i32 }
          cleanup
  tail call void @_ZdlPvm(ptr noundef nonnull %8, i64 noundef 8) #15
  resume { ptr, i32 } %13

14:                                               ; preds = %9, %2
  %15 = tail call noundef nonnull align 4 dereferenceable(4) ptr @_ZNSt3__119__thread_local_dataEv()
  %16 = load i32, ptr %15, align 4, !tbaa !19
  %17 = tail call noundef ptr @pthread_getspecific(i32 noundef %16) #11
  %18 = load ptr, ptr %1, align 8, !tbaa !14
  store ptr null, ptr %1, align 8, !tbaa !14
  %19 = getelementptr inbounds nuw i8, ptr %1, i64 8
  store i8 0, ptr %19, align 8, !tbaa !5
  tail call void @_ZNSt3__115__thread_struct25notify_all_at_thread_exitEPNS_18condition_variableEPNS_5mutexE(ptr noundef nonnull align 8 dereferenceable(8) %17, ptr noundef nonnull %0, ptr noundef %18)
  ret void
}